; ModuleID = '7/331.c'
source_filename = "7/331.c"
target datalayout = "e-m:e-p270:32:32-p271:32:32-p272:64:64-i64:64-f80:128-n8:16:32:64-S128"
target triple = "x86_64-pc-linux-gnu"

@.str = private unnamed_addr constant [3 x i8] c"%s\00", align 1
@.str.1 = private unnamed_addr constant [4 x i8] c"%s\0A\00", align 1

; Function Attrs: noinline nounwind uwtable
define dso_local i32 @main() #0 {
  %1 = alloca i32, align 4
  %2 = alloca [100 x i8], align 16
  %3 = alloca i8, align 1
  %4 = alloca [100 x i8], align 16
  %5 = alloca [100 x i8], align 16
  %6 = alloca i32, align 4
  %7 = alloca i32, align 4
  %8 = alloca i32, align 4
  %9 = alloca i32, align 4
  %10 = alloca i32, align 4
  %11 = alloca i32, align 4
  store i32 0, i32* %1, align 4
  store i32 0, i32* %8, align 4
  %12 = getelementptr inbounds [100 x i8], [100 x i8]* %2, i64 0, i64 0
  %13 = call i32 (i8*, ...) @__isoc99_scanf(i8* getelementptr inbounds ([3 x i8], [3 x i8]* @.str, i64 0, i64 0), i8* %12)
  %14 = getelementptr inbounds [100 x i8], [100 x i8]* %4, i64 0, i64 0
  %15 = call i32 (i8*, ...) @__isoc99_scanf(i8* getelementptr inbounds ([3 x i8], [3 x i8]* @.str, i64 0, i64 0), i8* %14)
  %16 = getelementptr inbounds [100 x i8], [100 x i8]* %5, i64 0, i64 0
  %17 = call i32 (i8*, ...) @__isoc99_scanf(i8* getelementptr inbounds ([3 x i8], [3 x i8]* @.str, i64 0, i64 0), i8* %16)
  %18 = getelementptr inbounds [100 x i8], [100 x i8]* %2, i64 0, i64 0
  %19 = call i64 @strlen(i8* %18) #3
  %20 = trunc i64 %19 to i32
  store i32 %20, i32* %10, align 4
  %21 = getelementptr inbounds [100 x i8], [100 x i8]* %4, i64 0, i64 0
  %22 = call i64 @strlen(i8* %21) #3
  %23 = trunc i64 %22 to i32
  store i32 %23, i32* %11, align 4
  store i32 0, i32* %6, align 4
  br label %24

24:                                               ; preds = %50, %0
  %25 = load i32, i32* %6, align 4
  %26 = load i32, i32* %10, align 4
  %27 = icmp slt i32 %25, %26
  br i1 %27, label %28, label %53

28:                                               ; preds = %24
  %29 = load i32, i32* %6, align 4
  %30 = sext i32 %29 to i64
  %31 = getelementptr inbounds [100 x i8], [100 x i8]* %2, i64 0, i64 %30
  %32 = load i8, i8* %31, align 1
  %33 = sext i8 %32 to i32
  %34 = load i32, i32* %8, align 4
  %35 = sext i32 %34 to i64
  %36 = getelementptr inbounds [100 x i8], [100 x i8]* %4, i64 0, i64 %35
  %37 = load i8, i8* %36, align 1
  %38 = sext i8 %37 to i32
  %39 = icmp eq i32 %33, %38
  br i1 %39, label %40, label %43

40:                                               ; preds = %28
  %41 = load i32, i32* %8, align 4
  %42 = add nsw i32 %41, 1
  store i32 %42, i32* %8, align 4
  br label %44

43:                                               ; preds = %28
  store i32 0, i32* %8, align 4
  br label %44

44:                                               ; preds = %43, %40
  %45 = load i32, i32* %8, align 4
  %46 = load i32, i32* %11, align 4
  %47 = icmp eq i32 %45, %46
  br i1 %47, label %48, label %49

48:                                               ; preds = %44
  store i32 1, i32* %9, align 4
  br label %53

49:                                               ; preds = %44
  br label %50

50:                                               ; preds = %49
  %51 = load i32, i32* %6, align 4
  %52 = add nsw i32 %51, 1
  store i32 %52, i32* %6, align 4
  br label %24

53:                                               ; preds = %48, %24
  %54 = load i32, i32* %9, align 4
  %55 = icmp eq i32 %54, 1
  br i1 %55, label %56, label %77

56:                                               ; preds = %53
  %57 = load i32, i32* %11, align 4
  %58 = sub nsw i32 %57, 1
  store i32 %58, i32* %8, align 4
  br label %59

59:                                               ; preds = %73, %56
  %60 = load i32, i32* %8, align 4
  %61 = icmp sge i32 %60, 0
  br i1 %61, label %62, label %76

62:                                               ; preds = %59
  %63 = load i32, i32* %8, align 4
  %64 = sext i32 %63 to i64
  %65 = getelementptr inbounds [100 x i8], [100 x i8]* %5, i64 0, i64 %64
  %66 = load i8, i8* %65, align 1
  store i8 %66, i8* %3, align 1
  %67 = load i8, i8* %3, align 1
  %68 = load i32, i32* %6, align 4
  %69 = sext i32 %68 to i64
  %70 = getelementptr inbounds [100 x i8], [100 x i8]* %2, i64 0, i64 %69
  store i8 %67, i8* %70, align 1
  %71 = load i32, i32* %6, align 4
  %72 = add nsw i32 %71, -1
  store i32 %72, i32* %6, align 4
  br label %73

73:                                               ; preds = %62
  %74 = load i32, i32* %8, align 4
  %75 = add nsw i32 %74, -1
  store i32 %75, i32* %8, align 4
  br label %59

76:                                               ; preds = %59
  br label %77

77:                                               ; preds = %76, %53
  %78 = getelementptr inbounds [100 x i8], [100 x i8]* %2, i64 0, i64 0
  %79 = call i32 (i8*, ...) @printf(i8* getelementptr inbounds ([4 x i8], [4 x i8]* @.str.1, i64 0, i64 0), i8* %78)
  ret i32 0
}

declare dso_local i32 @__isoc99_scanf(i8*, ...) #1

; Function Attrs: nounwind readonly
declare dso_local i64 @strlen(i8*) #2

declare dso_local i32 @printf(i8*, ...) #1


!llvm.module.flags = !{!0}
!llvm.ident = !{!1}

!0 = !{i32 1, !"wchar_size", i32 4}
!1 = !{!"clang version 10.0.0-4ubuntu1 "}
